target datalayout = "e-m:e-p270:32:32-p271:32:32-p272:64:64-i64:64-i128:128-f80:128-n8:16:32:64-S128"
target triple = "x86_64-pc-linux-gnu"

%struct.VerletbufListSetup = type { i32, i32 }

; Function Attrs: mustprogress nounwind uwtable
define internal noundef i32 @_ZN3gmxL22sc_gpuClusterPairSplitENS_12PairlistTypeE(i32 noundef %0) #2 {
  %2 = alloca i32, align 4
  store i32 %0, ptr %2, align 4, !tbaa !40
  %3 = load i32, ptr %2, align 4, !tbaa !40
  switch i32 %3, label %4 [
  ]

4:                                                ; preds = %1
  ret i32 2
}

; Function Attrs: mustprogress uwtable
define internal noundef i32 @_ZN3gmxL23sc_gpuSplitJClusterSizeENS_12PairlistTypeE(i32 noundef %0) #3 {
  %2 = alloca i32, align 4
  store i32 %0, ptr %2, align 4, !tbaa !40
  %3 = load i32, ptr %2, align 4, !tbaa !40
  %4 = call noundef i32 @_ZN3gmxL17sc_gpuClusterSizeENS_12PairlistTypeE(i32 noundef %3)
  %5 = load i32, ptr %2, align 4, !tbaa !40
  %6 = call noundef i32 @_ZN3gmxL22sc_gpuClusterPairSplitENS_12PairlistTypeE(i32 noundef %5)
  %7 = sdiv i32 %4, %6
  ret i32 %7
}

; Function Attrs: mustprogress uwtable
define internal noundef i32 @_ZN3gmxL15sc_jClusterSizeENS_15NbnxmKernelTypeE(i32 noundef %0) #3 {
  %2 = alloca i32, align 4
  %3 = alloca i32, align 4
  store i32 %0, ptr %3, align 4, !tbaa !34
  %4 = load i32, ptr %3, align 4, !tbaa !34
  switch i32 %4, label %10 [
    i32 1, label %5
    i32 2, label %6
    i32 3, label %7
    i32 6, label %8
    i32 0, label %9
    i32 7, label %9
  ]

5:                                                ; preds = %1
  store i32 4, ptr %2, align 4
  br label %12

6:                                                ; preds = %1
  store i32 8, ptr %2, align 4
  br label %12

7:                                                ; preds = %1
  store i32 4, ptr %2, align 4
  br label %12

8:                                                ; preds = %1
  store i32 1, ptr %2, align 4
  br label %12

9:                                                ; preds = %1, %1
  store i32 0, ptr %2, align 4
  br label %12

10:                                               ; preds = %1
  %11 = call noundef i32 @_ZN3gmxL23sc_gpuSplitJClusterSizeENS_12PairlistTypeE(i32 noundef 5)
  store i32 %11, ptr %2, align 4
  br label %12

12:                                               ; preds = %10, %9, %8, %7, %6, %5
  %13 = load i32, ptr %2, align 4
  ret i32 %13
}

; Function Attrs: mustprogress nounwind uwtable
define internal noundef i32 @_ZN3gmxL15sc_iClusterSizeENS_15NbnxmKernelTypeE(i32 noundef %0) #2 {
  %2 = alloca i32, align 4
  %3 = alloca i32, align 4
  store i32 %0, ptr %3, align 4, !tbaa !34
  %4 = load i32, ptr %3, align 4, !tbaa !34
  switch i32 %4, label %8 [
    i32 1, label %5
    i32 2, label %5
    i32 3, label %5
    i32 6, label %6
    i32 0, label %7
    i32 7, label %7
  ]

5:                                                ; preds = %1, %1, %1
  store i32 4, ptr %2, align 4
  br label %10

6:                                                ; preds = %1
  store i32 1, ptr %2, align 4
  br label %10

7:                                                ; preds = %1, %1
  store i32 0, ptr %2, align 4
  br label %10

8:                                                ; preds = %1
  %9 = call noundef i32 @_ZN3gmxL17sc_gpuClusterSizeENS_12PairlistTypeE(i32 noundef 5)
  store i32 %9, ptr %2, align 4
  br label %10

10:                                               ; preds = %8, %7, %6, %5
  %11 = load i32, ptr %2, align 4
  ret i32 %11
}

; Function Attrs: mustprogress nounwind uwtable
define internal noundef i32 @_ZN3gmxL17sc_gpuClusterSizeENS_12PairlistTypeE(i32 noundef %0) #2 {
  %2 = alloca i32, align 4
  store i32 %0, ptr %2, align 4, !tbaa !40
  %3 = load i32, ptr %2, align 4, !tbaa !40
  switch i32 %3, label %4 [
  ]

4:                                                ; preds = %1
  ret i32 8
}

; Function Attrs: mustprogress uwtable
define i64 @_Z21verletbufGetListSetupN3gmx15NbnxmKernelTypeE(i32 noundef %0) #3 {
  %2 = alloca %struct.VerletbufListSetup, align 4
  %3 = alloca i32, align 4
  store i32 %0, ptr %3, align 4, !tbaa !34
  %4 = load i32, ptr %3, align 4, !tbaa !34
  %5 = icmp eq i32 %4, 4
  br i1 %5, label %6, label %11

6:                                                ; preds = %1
  %7 = call noundef i32 @_ZN3gmxL17sc_gpuClusterSizeENS_12PairlistTypeE(i32 noundef 3)
  %8 = getelementptr inbounds nuw %struct.VerletbufListSetup, ptr %2, i32 0, i32 0
  store i32 %7, ptr %8, align 4, !tbaa !36
  %9 = call noundef i32 @_ZN3gmxL17sc_gpuClusterSizeENS_12PairlistTypeE(i32 noundef 3)
  %10 = getelementptr inbounds nuw %struct.VerletbufListSetup, ptr %2, i32 0, i32 1
  store i32 %9, ptr %10, align 4, !tbaa !39
  br label %18

11:                                               ; preds = %1
  %12 = load i32, ptr %3, align 4, !tbaa !34
  %13 = call noundef i32 @_ZN3gmxL15sc_iClusterSizeENS_15NbnxmKernelTypeE(i32 noundef %12)
  %14 = getelementptr inbounds nuw %struct.VerletbufListSetup, ptr %2, i32 0, i32 0
  store i32 %13, ptr %14, align 4, !tbaa !36
  %15 = load i32, ptr %3, align 4, !tbaa !34
  %16 = call noundef i32 @_ZN3gmxL15sc_jClusterSizeENS_15NbnxmKernelTypeE(i32 noundef %15)
  %17 = getelementptr inbounds nuw %struct.VerletbufListSetup, ptr %2, i32 0, i32 1
  store i32 %16, ptr %17, align 4, !tbaa !39
  br label %18

18:                                               ; preds = %11, %6
  %19 = load i64, ptr %2, align 4
  ret i64 %19
}