; Function Attrs: mustprogress nofree norecurse nosync nounwind willreturn memory(none) uwtable
define range(i64 0, 34359738384) i64 @_Z21verletbufGetListSetupN3gmx15NbnxmKernelTypeE(i32 noundef %0) local_unnamed_addr #11 {
  switch i32 %0, label %3 [
    i32 4, label %9
    i32 1, label %_ZN3gmxL15sc_iClusterSizeENS_15NbnxmKernelTypeE.exit
    i32 2, label %_ZN3gmxL15sc_iClusterSizeENS_15NbnxmKernelTypeE.exit
    i32 3, label %_ZN3gmxL15sc_iClusterSizeENS_15NbnxmKernelTypeE.exit
    i32 6, label %_ZN3gmxL15sc_jClusterSizeENS_15NbnxmKernelTypeE.exit
    i32 0, label %2
    i32 7, label %2
  ]

2:                                                ; preds = %1, %1
  br label %_ZN3gmxL15sc_iClusterSizeENS_15NbnxmKernelTypeE.exit

3:                                                ; preds = %1
  br label %_ZN3gmxL15sc_iClusterSizeENS_15NbnxmKernelTypeE.exit

_ZN3gmxL15sc_iClusterSizeENS_15NbnxmKernelTypeE.exit: ; preds = %1, %1, %1, %2, %3
  %.0.i = phi i32 [ 8, %3 ], [ 0, %2 ], [ 4, %1 ], [ 4, %1 ], [ 4, %1 ]
  switch i32 %0, label %_ZN3gmxL15sc_jClusterSizeENS_15NbnxmKernelTypeE.exit [
    i32 7, label %6
    i32 2, label %4
    i32 0, label %6
    i32 6, label %5
  ]

4:                                                ; preds = %_ZN3gmxL15sc_iClusterSizeENS_15NbnxmKernelTypeE.exit
  br label %_ZN3gmxL15sc_jClusterSizeENS_15NbnxmKernelTypeE.exit

5:                                                ; preds = %_ZN3gmxL15sc_iClusterSizeENS_15NbnxmKernelTypeE.exit
  br label %_ZN3gmxL15sc_jClusterSizeENS_15NbnxmKernelTypeE.exit

6:                                                ; preds = %_ZN3gmxL15sc_iClusterSizeENS_15NbnxmKernelTypeE.exit, %_ZN3gmxL15sc_iClusterSizeENS_15NbnxmKernelTypeE.exit
  br label %_ZN3gmxL15sc_jClusterSizeENS_15NbnxmKernelTypeE.exit

_ZN3gmxL15sc_jClusterSizeENS_15NbnxmKernelTypeE.exit: ; preds = %1, %_ZN3gmxL15sc_iClusterSizeENS_15NbnxmKernelTypeE.exit, %4, %5, %6
  %.0.i6 = phi i32 [ %.0.i, %6 ], [ %.0.i, %4 ], [ %.0.i, %_ZN3gmxL15sc_iClusterSizeENS_15NbnxmKernelTypeE.exit ], [ %.0.i, %5 ], [ 1, %1 ]
  %.0.i3 = phi i64 [ 0, %6 ], [ 34359738368, %4 ], [ 17179869184, %_ZN3gmxL15sc_iClusterSizeENS_15NbnxmKernelTypeE.exit ], [ 4294967296, %5 ], [ 4294967296, %1 ]
  %7 = zext nneg i32 %.0.i6 to i64
  %8 = or disjoint i64 %.0.i3, %7
  br label %9

9:                                                ; preds = %1, %_ZN3gmxL15sc_jClusterSizeENS_15NbnxmKernelTypeE.exit
  %.sroa.0.0.insert.insert = phi i64 [ %8, %_ZN3gmxL15sc_jClusterSizeENS_15NbnxmKernelTypeE.exit ], [ 34359738376, %1 ]
  ret i64 %.sroa.0.0.insert.insert
}